; Function Attrs: mustprogress nounwind uwtable
define void @_ZN3gmx21SurfaceAreaCalculatorD2Ev(ptr noundef nonnull align 8 captures(none) dereferenceable(8) %0) unnamed_addr #4 align 2 personality ptr @__gxx_personality_v0 {
  %2 = load ptr, ptr %0, align 8, !tbaa !11
  %.not.i = icmp eq ptr %2, null
  br i1 %.not.i, label %_ZNSt10unique_ptrIN3gmx21SurfaceAreaCalculator4ImplESt14default_deleteIS2_EED2Ev.exit, label %3

3:                                                ; preds = %1
  %4 = getelementptr inbounds nuw i8, ptr %2, i64 48
  tail call void @_ZN3gmx20AnalysisNeighborhoodD1Ev(ptr noundef nonnull align 8 dereferenceable(8) %4) #20
  %5 = load ptr, ptr %2, align 8, !tbaa !4
  %.not.i.i.i.i.i.i = icmp eq ptr %5, null
  br i1 %.not.i.i.i.i.i.i, label %_ZNKSt14default_deleteIN3gmx21SurfaceAreaCalculator4ImplEEclEPS2_.exit.i, label %6

6:                                                ; preds = %3
  %7 = getelementptr inbounds nuw i8, ptr %2, i64 16
  %8 = load ptr, ptr %7, align 8, !tbaa !10
  %9 = ptrtoint ptr %8 to i64
  %10 = ptrtoint ptr %5 to i64
  %11 = sub i64 %9, %10
  tail call void @_ZdlPvm(ptr noundef nonnull %5, i64 noundef %11) #19
  br label %_ZNKSt14default_deleteIN3gmx21SurfaceAreaCalculator4ImplEEclEPS2_.exit.i

_ZNKSt14default_deleteIN3gmx21SurfaceAreaCalculator4ImplEEclEPS2_.exit.i: ; preds = %6, %3
  tail call void @_ZdlPvm(ptr noundef nonnull %2, i64 noundef 56) #19
  br label %_ZNSt10unique_ptrIN3gmx21SurfaceAreaCalculator4ImplESt14default_deleteIS2_EED2Ev.exit

_ZNSt10unique_ptrIN3gmx21SurfaceAreaCalculator4ImplESt14default_deleteIS2_EED2Ev.exit: ; preds = %1, %_ZNKSt14default_deleteIN3gmx21SurfaceAreaCalculator4ImplEEclEPS2_.exit.i
  store ptr null, ptr %0, align 8, !tbaa !11
  ret void
}